target datalayout = "e-m:e-p270:32:32-p271:32:32-p272:64:64-i64:64-i128:128-f80:128-n8:16:32:64-S128"
target triple = "x86_64-pc-linux-gnu"

%struct.tr2_tgt = type { ptr, ptr, ptr, ptr, ptr, ptr, ptr, ptr, ptr, ptr, ptr, ptr, ptr, ptr, ptr, ptr, ptr, ptr, ptr, ptr, ptr, ptr, ptr, ptr, ptr, ptr, ptr, ptr, ptr, ptr }

@trace2_enabled = internal global i32 0, align 4
@trace2_redact = internal global i32 1, align 4
@tr2_tgt_builtins = internal global [4 x ptr] [ptr @tr2_tgt_normal, ptr @tr2_tgt_perf, ptr @tr2_tgt_event, ptr null], align 16
@.str.9 = private unnamed_addr constant [9 x i8] c"https://\00", align 1
@.str.10 = private unnamed_addr constant [8 x i8] c"http://\00", align 1
@.str.11 = private unnamed_addr constant [3 x i8] c"@/\00", align 1
@.str.12 = private unnamed_addr constant [18 x i8] c"%.*s:<REDACTED>%s\00", align 1

; Function Attrs: inlinehint nounwind uwtable
define internal zeroext i1 @skip_prefix(ptr noundef %0, ptr noundef %1, ptr noundef %2) #7 {
  %4 = alloca i1, align 1
  %5 = alloca ptr, align 8
  %6 = alloca ptr, align 8
  %7 = alloca ptr, align 8
  store ptr %0, ptr %5, align 8, !tbaa !4
  store ptr %1, ptr %6, align 8, !tbaa !4
  store ptr %2, ptr %7, align 8, !tbaa !27
  br label %8

8:                                                ; preds = %16, %3
  %9 = load ptr, ptr %6, align 8, !tbaa !4
  %10 = load i8, ptr %9, align 1, !tbaa !92
  %11 = icmp ne i8 %10, 0
  br i1 %11, label %15, label %12

12:                                               ; preds = %8
  %13 = load ptr, ptr %5, align 8, !tbaa !4
  %14 = load ptr, ptr %7, align 8, !tbaa !27
  store ptr %13, ptr %14, align 8, !tbaa !4
  store i1 true, ptr %4, align 1
  br label %27

15:                                               ; preds = %8
  br label %16

16:                                               ; preds = %15
  %17 = load ptr, ptr %5, align 8, !tbaa !4
  %18 = getelementptr inbounds nuw i8, ptr %17, i32 1
  store ptr %18, ptr %5, align 8, !tbaa !4
  %19 = load i8, ptr %17, align 1, !tbaa !92
  %20 = sext i8 %19 to i32
  %21 = load ptr, ptr %6, align 8, !tbaa !4
  %22 = getelementptr inbounds nuw i8, ptr %21, i32 1
  store ptr %22, ptr %6, align 8, !tbaa !4
  %23 = load i8, ptr %21, align 1, !tbaa !92
  %24 = sext i8 %23 to i32
  %25 = icmp eq i32 %20, %24
  br i1 %25, label %8, label %26, !llvm.loop !129

26:                                               ; preds = %16
  store i1 false, ptr %4, align 1
  br label %27

27:                                               ; preds = %26, %12
  %28 = load i1, ptr %4, align 1
  ret i1 %28
}

; Function Attrs: nounwind uwtable
define internal ptr @redact_arg(ptr noundef %0) #0 {
  %2 = alloca ptr, align 8
  %3 = alloca ptr, align 8
  %4 = alloca ptr, align 8
  %5 = alloca ptr, align 8
  %6 = alloca i64, align 8
  %7 = alloca i32, align 4
  store ptr %0, ptr %3, align 8, !tbaa !4
  call void @llvm.lifetime.start.p0(i64 8, ptr %4) #9
  call void @llvm.lifetime.start.p0(i64 8, ptr %5) #9
  call void @llvm.lifetime.start.p0(i64 8, ptr %6) #9
  %8 = load i32, ptr @trace2_redact, align 4, !tbaa !9
  %9 = icmp ne i32 %8, 0
  br i1 %9, label %10, label %16

10:                                               ; preds = %1
  %11 = load ptr, ptr %3, align 8, !tbaa !4
  %12 = call zeroext i1 @skip_prefix(ptr noundef %11, ptr noundef @.str.9, ptr noundef %4)
  br i1 %12, label %18, label %13

13:                                               ; preds = %10
  %14 = load ptr, ptr %3, align 8, !tbaa !4
  %15 = call zeroext i1 @skip_prefix(ptr noundef %14, ptr noundef @.str.10, ptr noundef %4)
  br i1 %15, label %18, label %16

16:                                               ; preds = %13, %1
  %17 = load ptr, ptr %3, align 8, !tbaa !4
  store ptr %17, ptr %2, align 8
  store i32 1, ptr %7, align 4
  br label %49

18:                                               ; preds = %13, %10
  %19 = load ptr, ptr %4, align 8, !tbaa !4
  %20 = call i64 @strcspn(ptr noundef %19, ptr noundef @.str.11) #10
  store i64 %20, ptr %6, align 8, !tbaa !21
  %21 = load ptr, ptr %4, align 8, !tbaa !4
  %22 = load i64, ptr %6, align 8, !tbaa !21
  %23 = getelementptr inbounds nuw i8, ptr %21, i64 %22
  %24 = load i8, ptr %23, align 1, !tbaa !92
  %25 = sext i8 %24 to i32
  %26 = icmp ne i32 %25, 64
  br i1 %26, label %27, label %29

27:                                               ; preds = %18
  %28 = load ptr, ptr %3, align 8, !tbaa !4
  store ptr %28, ptr %2, align 8
  store i32 1, ptr %7, align 4
  br label %49

29:                                               ; preds = %18
  %30 = load ptr, ptr %4, align 8, !tbaa !4
  %31 = load i64, ptr %6, align 8, !tbaa !21
  %32 = call ptr @memchr(ptr noundef %30, i32 noundef 58, i64 noundef %31) #10
  store ptr %32, ptr %5, align 8, !tbaa !4
  %33 = load ptr, ptr %5, align 8, !tbaa !4
  %34 = icmp ne ptr %33, null
  br i1 %34, label %37, label %35

35:                                               ; preds = %29
  %36 = load ptr, ptr %3, align 8, !tbaa !4
  store ptr %36, ptr %2, align 8
  store i32 1, ptr %7, align 4
  br label %49

37:                                               ; preds = %29
  %38 = load ptr, ptr %5, align 8, !tbaa !4
  %39 = load ptr, ptr %3, align 8, !tbaa !4
  %40 = ptrtoint ptr %38 to i64
  %41 = ptrtoint ptr %39 to i64
  %42 = sub i64 %40, %41
  %43 = trunc i64 %42 to i32
  %44 = load ptr, ptr %3, align 8, !tbaa !4
  %45 = load ptr, ptr %4, align 8, !tbaa !4
  %46 = load i64, ptr %6, align 8, !tbaa !21
  %47 = getelementptr inbounds nuw i8, ptr %45, i64 %46
  %48 = call ptr (ptr, ...) @xstrfmt(ptr noundef @.str.12, i32 noundef %43, ptr noundef %44, ptr noundef %47)
  store ptr %48, ptr %2, align 8
  store i32 1, ptr %7, align 4
  br label %49

49:                                               ; preds = %37, %35, %27, %16
  call void @llvm.lifetime.end.p0(i64 8, ptr %6) #9
  call void @llvm.lifetime.end.p0(i64 8, ptr %5) #9
  call void @llvm.lifetime.end.p0(i64 8, ptr %4) #9
  %50 = load ptr, ptr %2, align 8
  ret ptr %50
}

; Function Attrs: nounwind uwtable
define dso_local void @trace2_def_param_fl(ptr noundef %0, i32 noundef %1, ptr noundef %2, ptr noundef %3, ptr noundef %4) #0 {
  %6 = alloca ptr, align 8
  %7 = alloca i32, align 4
  %8 = alloca ptr, align 8
  %9 = alloca ptr, align 8
  %10 = alloca ptr, align 8
  %11 = alloca ptr, align 8
  %12 = alloca i32, align 4
  %13 = alloca ptr, align 8
  %14 = alloca i32, align 4
  store ptr %0, ptr %6, align 8, !tbaa !4
  store i32 %1, ptr %7, align 4, !tbaa !9
  store ptr %2, ptr %8, align 8, !tbaa !4
  store ptr %3, ptr %9, align 8, !tbaa !4
  store ptr %4, ptr %10, align 8, !tbaa !88
  call void @llvm.lifetime.start.p0(i64 8, ptr %11) #9
  call void @llvm.lifetime.start.p0(i64 4, ptr %12) #9
  call void @llvm.lifetime.start.p0(i64 8, ptr %13) #9
  %15 = load i32, ptr @trace2_enabled, align 4, !tbaa !9
  %16 = icmp ne i32 %15, 0
  br i1 %16, label %18, label %17

17:                                               ; preds = %5
  store i32 1, ptr %14, align 4
  br label %70

18:                                               ; preds = %5
  %19 = load ptr, ptr %9, align 8, !tbaa !4
  %20 = icmp ne ptr %19, null
  br i1 %20, label %21, label %24

21:                                               ; preds = %18
  %22 = load ptr, ptr %9, align 8, !tbaa !4
  %23 = call ptr @redact_arg(ptr noundef %22)
  br label %25

24:                                               ; preds = %18
  br label %25

25:                                               ; preds = %24, %21
  %26 = phi ptr [ %23, %21 ], [ null, %24 ]
  store ptr %26, ptr %13, align 8, !tbaa !4
  store i32 0, ptr %12, align 4, !tbaa !9
  %27 = load i32, ptr %12, align 4, !tbaa !9
  %28 = sext i32 %27 to i64
  %29 = getelementptr inbounds [4 x ptr], ptr @tr2_tgt_builtins, i64 0, i64 %28
  %30 = load ptr, ptr %29, align 8, !tbaa !11
  store ptr %30, ptr %11, align 8, !tbaa !11
  br label %31

31:                                               ; preds = %56, %25
  %32 = load ptr, ptr %11, align 8, !tbaa !11
  %33 = icmp ne ptr %32, null
  br i1 %33, label %34, label %63

34:                                               ; preds = %31
  %35 = load ptr, ptr %11, align 8, !tbaa !11
  %36 = getelementptr inbounds nuw %struct.tr2_tgt, ptr %35, i32 0, i32 0
  %37 = load ptr, ptr %36, align 8, !tbaa !13
  %38 = call i32 @tr2_dst_trace_want(ptr noundef %37)
  %39 = icmp ne i32 %38, 0
  br i1 %39, label %40, label %55

40:                                               ; preds = %34
  %41 = load ptr, ptr %11, align 8, !tbaa !11
  %42 = getelementptr inbounds nuw %struct.tr2_tgt, ptr %41, i32 0, i32 21
  %43 = load ptr, ptr %42, align 8, !tbaa !90
  %44 = icmp ne ptr %43, null
  br i1 %44, label %45, label %54

45:                                               ; preds = %40
  %46 = load ptr, ptr %11, align 8, !tbaa !11
  %47 = getelementptr inbounds nuw %struct.tr2_tgt, ptr %46, i32 0, i32 21
  %48 = load ptr, ptr %47, align 8, !tbaa !90
  %49 = load ptr, ptr %6, align 8, !tbaa !4
  %50 = load i32, ptr %7, align 4, !tbaa !9
  %51 = load ptr, ptr %8, align 8, !tbaa !4
  %52 = load ptr, ptr %13, align 8, !tbaa !4
  %53 = load ptr, ptr %10, align 8, !tbaa !88
  call void %48(ptr noundef %49, i32 noundef %50, ptr noundef %51, ptr noundef %52, ptr noundef %53)
  br label %54

54:                                               ; preds = %45, %40
  br label %55

55:                                               ; preds = %54, %34
  br label %56

56:                                               ; preds = %55
  %57 = load i32, ptr %12, align 4, !tbaa !9
  %58 = add nsw i32 %57, 1
  store i32 %58, ptr %12, align 4, !tbaa !9
  %59 = load i32, ptr %12, align 4, !tbaa !9
  %60 = sext i32 %59 to i64
  %61 = getelementptr inbounds [4 x ptr], ptr @tr2_tgt_builtins, i64 0, i64 %60
  %62 = load ptr, ptr %61, align 8, !tbaa !11
  store ptr %62, ptr %11, align 8, !tbaa !11
  br label %31, !llvm.loop !91

63:                                               ; preds = %31
  %64 = load ptr, ptr %13, align 8, !tbaa !4
  %65 = load ptr, ptr %9, align 8, !tbaa !4
  %66 = icmp ne ptr %64, %65
  br i1 %66, label %67, label %69

67:                                               ; preds = %63
  %68 = load ptr, ptr %13, align 8, !tbaa !4
  call void @free(ptr noundef %68) #9
  br label %69

69:                                               ; preds = %67, %63
  store i32 0, ptr %14, align 4
  br label %70

70:                                               ; preds = %69, %17
  call void @llvm.lifetime.end.p0(i64 8, ptr %13) #9
  call void @llvm.lifetime.end.p0(i64 4, ptr %12) #9
  call void @llvm.lifetime.end.p0(i64 8, ptr %11) #9
  %71 = load i32, ptr %14, align 4
  switch i32 %71, label %73 [
    i32 0, label %72
    i32 1, label %72
  ]

72:                                               ; preds = %70, %70
  ret void

73:                                               ; preds = %70
  unreachable
}