; Function Attrs: nounwind uwtable
define dso_local void @trace2_def_param_fl(ptr noundef %0, i32 noundef %1, ptr noundef %2, ptr noundef %3, ptr noundef %4) local_unnamed_addr #0 {
  %.b = load i1, ptr @trace2_enabled, align 4
  br i1 %.b, label %6, label %42

6:                                                ; preds = %5
  %.not = icmp eq ptr %3, null
  br i1 %.not, label %redact_arg.exit, label %7

7:                                                ; preds = %6
  %.b.i = load i1, ptr @trace2_redact, align 4
  br i1 %.b.i, label %redact_arg.exit, label %.preheader.preheader.i

.preheader.preheader.i:                           ; preds = %7
  %scevgep.i = getelementptr i8, ptr %3, i64 8
  br label %.preheader.i

.preheader.i:                                     ; preds = %8, %.preheader.preheader.i
  %.07.i.i = phi ptr [ %10, %8 ], [ %3, %.preheader.preheader.i ]
  %.06.i.idx.i = phi i64 [ %.06.i.add.i, %8 ], [ 0, %.preheader.preheader.i ]
  %exitcond.i = icmp eq i64 %.06.i.idx.i, 8
  br i1 %exitcond.i, label %skip_prefix.exit.thread.i, label %8

8:                                                ; preds = %.preheader.i
  %.06.i.ptr.i = getelementptr inbounds nuw i8, ptr @.str.9, i64 %.06.i.idx.i
  %9 = load i8, ptr %.06.i.ptr.i, align 1, !tbaa !30
  %10 = getelementptr inbounds nuw i8, ptr %.07.i.i, i64 1
  %11 = load i8, ptr %.07.i.i, align 1, !tbaa !30
  %.06.i.add.i = add nuw nsw i64 %.06.i.idx.i, 1
  %12 = icmp eq i8 %11, %9
  br i1 %12, label %.preheader.i, label %skip_prefix.exit.preheader.i, !llvm.loop !31

skip_prefix.exit.preheader.i:                     ; preds = %8
  %scevgep27.i = getelementptr i8, ptr %3, i64 7
  br label %skip_prefix.exit.i

skip_prefix.exit.i:                               ; preds = %13, %skip_prefix.exit.preheader.i
  %.07.i14.i = phi ptr [ %15, %13 ], [ %3, %skip_prefix.exit.preheader.i ]
  %.06.i15.idx.i = phi i64 [ %.06.i15.add.i, %13 ], [ 0, %skip_prefix.exit.preheader.i ]
  %exitcond28.i = icmp eq i64 %.06.i15.idx.i, 7
  br i1 %exitcond28.i, label %skip_prefix.exit.thread.i, label %13

13:                                               ; preds = %skip_prefix.exit.i
  %.06.i15.ptr.i = getelementptr inbounds nuw i8, ptr @.str.10, i64 %.06.i15.idx.i
  %14 = load i8, ptr %.06.i15.ptr.i, align 1, !tbaa !30
  %15 = getelementptr inbounds nuw i8, ptr %.07.i14.i, i64 1
  %16 = load i8, ptr %.07.i14.i, align 1, !tbaa !30
  %.06.i15.add.i = add nuw nsw i64 %.06.i15.idx.i, 1
  %17 = icmp eq i8 %16, %14
  br i1 %17, label %skip_prefix.exit.i, label %redact_arg.exit, !llvm.loop !31

skip_prefix.exit.thread.i:                        ; preds = %.preheader.i, %skip_prefix.exit.i
  %.018.i = phi ptr [ %scevgep27.i, %skip_prefix.exit.i ], [ %scevgep.i, %.preheader.i ]
  %18 = tail call i64 @strcspn(ptr noundef %.018.i, ptr noundef nonnull @.str.11) #12
  %19 = getelementptr inbounds nuw i8, ptr %.018.i, i64 %18
  %20 = load i8, ptr %19, align 1, !tbaa !30
  %.not.i = icmp eq i8 %20, 64
  br i1 %.not.i, label %21, label %redact_arg.exit

21:                                               ; preds = %skip_prefix.exit.thread.i
  %22 = tail call ptr @memchr(ptr noundef nonnull %.018.i, i32 noundef 58, i64 noundef %18) #12
  %.not13.i = icmp eq ptr %22, null
  br i1 %.not13.i, label %redact_arg.exit, label %23

23:                                               ; preds = %21
  %24 = ptrtoint ptr %22 to i64
  %25 = ptrtoint ptr %3 to i64
  %26 = sub i64 %24, %25
  %27 = trunc i64 %26 to i32
  %28 = tail call ptr (ptr, ...) @xstrfmt(ptr noundef nonnull @.str.12, i32 noundef %27, ptr noundef nonnull %3, ptr noundef nonnull %19) #11
  br label %redact_arg.exit

redact_arg.exit:                                  ; preds = %13, %23, %21, %skip_prefix.exit.thread.i, %7, %6
  %29 = phi ptr [ null, %6 ], [ %28, %23 ], [ %3, %7 ], [ %3, %skip_prefix.exit.thread.i ], [ %3, %21 ], [ %3, %13 ]
  br label %30

30:                                               ; preds = %redact_arg.exit, %37
  %indvars.iv = phi i64 [ 0, %redact_arg.exit ], [ %indvars.iv.next, %37 ]
  %.026 = phi ptr [ @tr2_tgt_normal, %redact_arg.exit ], [ %39, %37 ]
  %31 = load ptr, ptr %.026, align 8, !tbaa !14
  %32 = tail call i32 @tr2_dst_trace_want(ptr noundef %31) #11
  %.not22 = icmp eq i32 %32, 0
  br i1 %.not22, label %37, label %33

33:                                               ; preds = %30
  %34 = getelementptr inbounds nuw i8, ptr %.026, i64 168
  %35 = load ptr, ptr %34, align 8, !tbaa !80
  %.not23 = icmp eq ptr %35, null
  br i1 %.not23, label %37, label %36

36:                                               ; preds = %33
  tail call void %35(ptr noundef %0, i32 noundef %1, ptr noundef %2, ptr noundef %29, ptr noundef %4) #11
  br label %37

37:                                               ; preds = %30, %36, %33
  %indvars.iv.next = add nuw nsw i64 %indvars.iv, 1
  %38 = getelementptr inbounds nuw [4 x ptr], ptr @tr2_tgt_builtins, i64 0, i64 %indvars.iv.next
  %39 = load ptr, ptr %38, align 8, !tbaa !10
  %.not20 = icmp eq i64 %indvars.iv.next, 3
  br i1 %.not20, label %40, label %30, !llvm.loop !81

40:                                               ; preds = %37
  %.not21 = icmp eq ptr %29, %3
  br i1 %.not21, label %42, label %41

41:                                               ; preds = %40
  tail call void @free(ptr noundef %29) #11
  br label %42

42:                                               ; preds = %40, %41, %5
  ret void
}